target datalayout = "e-m:e-p270:32:32-p271:32:32-p272:64:64-i64:64-i128:128-f80:128-n8:16:32:64-S128"
target triple = "x86_64-pc-linux-gnu"

%struct.in_addr = type { i32 }

@.str.14 = private unnamed_addr constant [30 x i8] c"../openssl/test/quicapitest.c\00", align 1
@.str.70 = private unnamed_addr constant [2 x i8] c"0\00", align 1
@.str.82 = private unnamed_addr constant [2 x i8] c"1\00", align 1
@.str.369 = private unnamed_addr constant [27 x i8] c"lctx = create_server_ctx()\00", align 1
@.str.370 = private unnamed_addr constant [27 x i8] c"sctx = create_server_ctx()\00", align 1
@.str.371 = private unnamed_addr constant [43 x i8] c"BIO_new_bio_dgram_pair(&lbio, 0, &sbio, 0)\00", align 1
@.str.372 = private unnamed_addr constant [31 x i8] c"addr = create_addr(&ina, 8040)\00", align 1
@.str.373 = private unnamed_addr constant [26 x i8] c"bio_addr_bind(lbio, addr)\00", align 1
@.str.374 = private unnamed_addr constant [31 x i8] c"addr = create_addr(&ina, 4080)\00", align 1
@.str.375 = private unnamed_addr constant [26 x i8] c"bio_addr_bind(sbio, addr)\00", align 1
@.str.376 = private unnamed_addr constant [10 x i8] c"qlistener\00", align 1
@.str.377 = private unnamed_addr constant [8 x i8] c"qserver\00", align 1
@.str.378 = private unnamed_addr constant [44 x i8] c"qconn = SSL_new_from_listener(qlistener, 0)\00", align 1
@.str.379 = private unnamed_addr constant [4 x i8] c"chk\00", align 1
@.str.380 = private unnamed_addr constant [27 x i8] c"SSL_do_handshake() failed\0A\00", align 1
@.str.386 = private unnamed_addr constant [34 x i8] c"BIO_dgram_set_caps(bio, bio_caps)\00", align 1
@.str.387 = private unnamed_addr constant [37 x i8] c"BIO_dgram_set0_local_addr(bio, addr)\00", align 1

; Function Attrs: nounwind uwtable
define internal i32 @bio_addr_bind(ptr noundef %0, ptr noundef %1) #0 {
  %3 = alloca i32, align 4
  %4 = alloca ptr, align 8
  %5 = alloca ptr, align 8
  %6 = alloca i32, align 4
  %7 = alloca i32, align 4
  store ptr %0, ptr %4, align 8, !tbaa !39
  store ptr %1, ptr %5, align 8, !tbaa !64
  call void @llvm.lifetime.start.p0(i64 4, ptr %6) #8
  store i32 3, ptr %6, align 4, !tbaa !13
  %8 = load ptr, ptr %4, align 8, !tbaa !39
  %9 = load i32, ptr %6, align 4, !tbaa !13
  %10 = sext i32 %9 to i64
  %11 = call i64 @BIO_ctrl(ptr noundef %8, i32 noundef 87, i64 noundef %10, ptr noundef null)
  %12 = trunc i64 %11 to i32
  %13 = icmp ne i32 %12, 0
  %14 = zext i1 %13 to i32
  %15 = call i32 @test_true(ptr noundef @.str.14, i32 noundef 2532, ptr noundef @.str.386, i32 noundef %14)
  %16 = icmp ne i32 %15, 0
  br i1 %16, label %18, label %17

17:                                               ; preds = %2
  store i32 0, ptr %3, align 4
  store i32 1, ptr %7, align 4
  br label %27

18:                                               ; preds = %2
  %19 = load ptr, ptr %4, align 8, !tbaa !39
  %20 = load ptr, ptr %5, align 8, !tbaa !64
  %21 = call i64 @BIO_ctrl(ptr noundef %19, i32 noundef 94, i64 noundef 0, ptr noundef %20)
  %22 = trunc i64 %21 to i32
  %23 = call i32 @test_int_eq(ptr noundef @.str.14, i32 noundef 2535, ptr noundef @.str.387, ptr noundef @.str.82, i32 noundef %22, i32 noundef 1)
  %24 = icmp ne i32 %23, 0
  br i1 %24, label %26, label %25

25:                                               ; preds = %18
  store i32 0, ptr %3, align 4
  store i32 1, ptr %7, align 4
  br label %27

26:                                               ; preds = %18
  store i32 1, ptr %3, align 4
  store i32 1, ptr %7, align 4
  br label %27

27:                                               ; preds = %26, %25, %17
  call void @llvm.lifetime.end.p0(i64 4, ptr %6) #8
  %28 = load i32, ptr %3, align 4
  ret i32 %28
}

; Function Attrs: inlinehint nounwind uwtable
define internal i32 @__bswap_32(i32 noundef %0) #5 {
  %2 = alloca i32, align 4
  store i32 %0, ptr %2, align 4, !tbaa !13
  %3 = load i32, ptr %2, align 4, !tbaa !13
  %4 = and i32 %3, -16777216
  %5 = lshr i32 %4, 24
  %6 = load i32, ptr %2, align 4, !tbaa !13
  %7 = and i32 %6, 16711680
  %8 = lshr i32 %7, 8
  %9 = or i32 %5, %8
  %10 = load i32, ptr %2, align 4, !tbaa !13
  %11 = and i32 %10, 65280
  %12 = shl i32 %11, 8
  %13 = or i32 %9, %12
  %14 = load i32, ptr %2, align 4, !tbaa !13
  %15 = and i32 %14, 255
  %16 = shl i32 %15, 24
  %17 = or i32 %13, %16
  ret i32 %17
}

; Function Attrs: nounwind uwtable
define internal i32 @test_ssl_new_from_listener() #0 {
  %1 = alloca ptr, align 8
  %2 = alloca ptr, align 8
  %3 = alloca ptr, align 8
  %4 = alloca ptr, align 8
  %5 = alloca ptr, align 8
  %6 = alloca i32, align 4
  %7 = alloca i32, align 4
  %8 = alloca ptr, align 8
  %9 = alloca ptr, align 8
  %10 = alloca ptr, align 8
  %11 = alloca %struct.in_addr, align 4
  call void @llvm.lifetime.start.p0(i64 8, ptr %1) #8
  store ptr null, ptr %1, align 8, !tbaa !15
  call void @llvm.lifetime.start.p0(i64 8, ptr %2) #8
  store ptr null, ptr %2, align 8, !tbaa !15
  call void @llvm.lifetime.start.p0(i64 8, ptr %3) #8
  store ptr null, ptr %3, align 8, !tbaa !17
  call void @llvm.lifetime.start.p0(i64 8, ptr %4) #8
  store ptr null, ptr %4, align 8, !tbaa !17
  call void @llvm.lifetime.start.p0(i64 8, ptr %5) #8
  store ptr null, ptr %5, align 8, !tbaa !17
  call void @llvm.lifetime.start.p0(i64 4, ptr %6) #8
  store i32 0, ptr %6, align 4, !tbaa !13
  call void @llvm.lifetime.start.p0(i64 4, ptr %7) #8
  call void @llvm.lifetime.start.p0(i64 8, ptr %8) #8
  store ptr null, ptr %8, align 8, !tbaa !39
  call void @llvm.lifetime.start.p0(i64 8, ptr %9) #8
  store ptr null, ptr %9, align 8, !tbaa !39
  call void @llvm.lifetime.start.p0(i64 8, ptr %10) #8
  store ptr null, ptr %10, align 8, !tbaa !64
  call void @llvm.lifetime.start.p0(i64 4, ptr %11) #8
  %12 = call i32 @__bswap_32(i32 noundef 520093697)
  %13 = getelementptr inbounds nuw %struct.in_addr, ptr %11, i32 0, i32 0
  store i32 %12, ptr %13, align 4, !tbaa !66
  %14 = call ptr @create_server_ctx()
  store ptr %14, ptr %1, align 8, !tbaa !15
  %15 = call i32 @test_ptr(ptr noundef @.str.14, i32 noundef 2584, ptr noundef @.str.369, ptr noundef %14)
  %16 = icmp ne i32 %15, 0
  br i1 %16, label %17, label %27

17:                                               ; preds = %0
  %18 = call ptr @create_server_ctx()
  store ptr %18, ptr %2, align 8, !tbaa !15
  %19 = call i32 @test_ptr(ptr noundef @.str.14, i32 noundef 2585, ptr noundef @.str.370, ptr noundef %18)
  %20 = icmp ne i32 %19, 0
  br i1 %20, label %21, label %27

21:                                               ; preds = %17
  %22 = call i32 @BIO_new_bio_dgram_pair(ptr noundef %8, i64 noundef 0, ptr noundef %9, i64 noundef 0)
  %23 = icmp ne i32 %22, 0
  %24 = zext i1 %23 to i32
  %25 = call i32 @test_true(ptr noundef @.str.14, i32 noundef 2586, ptr noundef @.str.371, i32 noundef %24)
  %26 = icmp ne i32 %25, 0
  br i1 %26, label %28, label %27

27:                                               ; preds = %21, %17, %0
  br label %109

28:                                               ; preds = %21
  %29 = call ptr @create_addr(ptr noundef %11, i16 noundef signext 8040)
  store ptr %29, ptr %10, align 8, !tbaa !64
  %30 = call i32 @test_ptr(ptr noundef @.str.14, i32 noundef 2589, ptr noundef @.str.372, ptr noundef %29)
  %31 = icmp ne i32 %30, 0
  br i1 %31, label %33, label %32

32:                                               ; preds = %28
  br label %109

33:                                               ; preds = %28
  %34 = load ptr, ptr %8, align 8, !tbaa !39
  %35 = load ptr, ptr %10, align 8, !tbaa !64
  %36 = call i32 @bio_addr_bind(ptr noundef %34, ptr noundef %35)
  %37 = icmp ne i32 %36, 0
  %38 = zext i1 %37 to i32
  %39 = call i32 @test_true(ptr noundef @.str.14, i32 noundef 2592, ptr noundef @.str.373, i32 noundef %38)
  %40 = icmp ne i32 %39, 0
  br i1 %40, label %42, label %41

41:                                               ; preds = %33
  br label %109

42:                                               ; preds = %33
  store ptr null, ptr %10, align 8, !tbaa !64
  %43 = call ptr @create_addr(ptr noundef %11, i16 noundef signext 4080)
  store ptr %43, ptr %10, align 8, !tbaa !64
  %44 = call i32 @test_ptr(ptr noundef @.str.14, i32 noundef 2596, ptr noundef @.str.374, ptr noundef %43)
  %45 = icmp ne i32 %44, 0
  br i1 %45, label %47, label %46

46:                                               ; preds = %42
  br label %109

47:                                               ; preds = %42
  %48 = load ptr, ptr %9, align 8, !tbaa !39
  %49 = load ptr, ptr %10, align 8, !tbaa !64
  %50 = call i32 @bio_addr_bind(ptr noundef %48, ptr noundef %49)
  %51 = icmp ne i32 %50, 0
  %52 = zext i1 %51 to i32
  %53 = call i32 @test_true(ptr noundef @.str.14, i32 noundef 2599, ptr noundef @.str.375, i32 noundef %52)
  %54 = icmp ne i32 %53, 0
  br i1 %54, label %56, label %55

55:                                               ; preds = %47
  br label %109

56:                                               ; preds = %47
  store ptr null, ptr %10, align 8, !tbaa !64
  %57 = load ptr, ptr %1, align 8, !tbaa !15
  %58 = load ptr, ptr %8, align 8, !tbaa !39
  %59 = call ptr @ql_create(ptr noundef %57, ptr noundef %58)
  store ptr %59, ptr %3, align 8, !tbaa !17
  store ptr null, ptr %8, align 8, !tbaa !39
  %60 = load ptr, ptr %3, align 8, !tbaa !17
  %61 = call i32 @test_ptr(ptr noundef @.str.14, i32 noundef 2605, ptr noundef @.str.376, ptr noundef %60)
  %62 = icmp ne i32 %61, 0
  br i1 %62, label %64, label %63

63:                                               ; preds = %56
  br label %109

64:                                               ; preds = %56
  %65 = load ptr, ptr %2, align 8, !tbaa !15
  %66 = load ptr, ptr %9, align 8, !tbaa !39
  %67 = call ptr @ql_create(ptr noundef %65, ptr noundef %66)
  store ptr %67, ptr %4, align 8, !tbaa !17
  store ptr null, ptr %9, align 8, !tbaa !39
  %68 = load ptr, ptr %4, align 8, !tbaa !17
  %69 = call i32 @test_ptr(ptr noundef @.str.14, i32 noundef 2610, ptr noundef @.str.377, ptr noundef %68)
  %70 = icmp ne i32 %69, 0
  br i1 %70, label %72, label %71

71:                                               ; preds = %64
  br label %109

72:                                               ; preds = %64
  %73 = load ptr, ptr %3, align 8, !tbaa !17
  %74 = call ptr @SSL_new_from_listener(ptr noundef %73, i64 noundef 0)
  store ptr %74, ptr %5, align 8, !tbaa !17
  %75 = call i32 @test_ptr(ptr noundef @.str.14, i32 noundef 2613, ptr noundef @.str.378, ptr noundef %74)
  %76 = icmp ne i32 %75, 0
  br i1 %76, label %78, label %77

77:                                               ; preds = %72
  br label %109

78:                                               ; preds = %72
  %79 = call ptr @create_addr(ptr noundef %11, i16 noundef signext 4080)
  store ptr %79, ptr %10, align 8, !tbaa !64
  %80 = call i32 @test_ptr(ptr noundef @.str.14, i32 noundef 2616, ptr noundef @.str.374, ptr noundef %79)
  %81 = icmp ne i32 %80, 0
  br i1 %81, label %83, label %82

82:                                               ; preds = %78
  br label %109

83:                                               ; preds = %78
  %84 = load ptr, ptr %5, align 8, !tbaa !17
  %85 = load ptr, ptr %10, align 8, !tbaa !64
  %86 = call i32 @qc_init(ptr noundef %84, ptr noundef %85)
  store i32 %86, ptr %7, align 4, !tbaa !13
  %87 = load i32, ptr %7, align 4, !tbaa !13
  %88 = icmp ne i32 %87, 0
  %89 = zext i1 %88 to i32
  %90 = call i32 @test_true(ptr noundef @.str.14, i32 noundef 2620, ptr noundef @.str.379, i32 noundef %89)
  %91 = icmp ne i32 %90, 0
  br i1 %91, label %93, label %92

92:                                               ; preds = %83
  br label %109

93:                                               ; preds = %83
  br label %94

94:                                               ; preds = %98, %93
  %95 = load ptr, ptr %5, align 8, !tbaa !17
  %96 = call i32 @SSL_do_handshake(ptr noundef %95)
  store i32 %96, ptr %7, align 4, !tbaa !13
  %97 = icmp eq i32 %96, -1
  br i1 %97, label %98, label %103

98:                                               ; preds = %94
  %99 = load ptr, ptr %4, align 8, !tbaa !17
  %100 = call i32 @SSL_handle_events(ptr noundef %99)
  %101 = load ptr, ptr %3, align 8, !tbaa !17
  %102 = call i32 @SSL_handle_events(ptr noundef %101)
  br label %94, !llvm.loop !68

103:                                              ; preds = %94
  %104 = load i32, ptr %7, align 4, !tbaa !13
  %105 = call i32 @test_int_gt(ptr noundef @.str.14, i32 noundef 2628, ptr noundef @.str.379, ptr noundef @.str.70, i32 noundef %104, i32 noundef 0)
  %106 = icmp ne i32 %105, 0
  br i1 %106, label %108, label %107

107:                                              ; preds = %103
  call void (ptr, i32, ptr, ...) @test_info(ptr noundef @.str.14, i32 noundef 2629, ptr noundef @.str.380)
  br label %109

108:                                              ; preds = %103
  store i32 1, ptr %6, align 4, !tbaa !13
  br label %109

109:                                              ; preds = %108, %107, %92, %82, %77, %71, %63, %55, %46, %41, %32, %27
  %110 = load ptr, ptr %5, align 8, !tbaa !17
  call void @SSL_free(ptr noundef %110)
  %111 = load ptr, ptr %3, align 8, !tbaa !17
  call void @SSL_free(ptr noundef %111)
  %112 = load ptr, ptr %4, align 8, !tbaa !17
  call void @SSL_free(ptr noundef %112)
  %113 = load ptr, ptr %8, align 8, !tbaa !39
  %114 = call i32 @BIO_free(ptr noundef %113)
  %115 = load ptr, ptr %9, align 8, !tbaa !39
  %116 = call i32 @BIO_free(ptr noundef %115)
  %117 = load ptr, ptr %2, align 8, !tbaa !15
  call void @SSL_CTX_free(ptr noundef %117)
  %118 = load ptr, ptr %1, align 8, !tbaa !15
  call void @SSL_CTX_free(ptr noundef %118)
  %119 = load ptr, ptr %10, align 8, !tbaa !64
  call void @BIO_ADDR_free(ptr noundef %119)
  %120 = load i32, ptr %6, align 4, !tbaa !13
  call void @llvm.lifetime.end.p0(i64 4, ptr %11) #8
  call void @llvm.lifetime.end.p0(i64 8, ptr %10) #8
  call void @llvm.lifetime.end.p0(i64 8, ptr %9) #8
  call void @llvm.lifetime.end.p0(i64 8, ptr %8) #8
  call void @llvm.lifetime.end.p0(i64 4, ptr %7) #8
  call void @llvm.lifetime.end.p0(i64 4, ptr %6) #8
  call void @llvm.lifetime.end.p0(i64 8, ptr %5) #8
  call void @llvm.lifetime.end.p0(i64 8, ptr %4) #8
  call void @llvm.lifetime.end.p0(i64 8, ptr %3) #8
  call void @llvm.lifetime.end.p0(i64 8, ptr %2) #8
  call void @llvm.lifetime.end.p0(i64 8, ptr %1) #8
  ret i32 %120
}