; Function Attrs: nounwind uwtable
define internal range(i32 0, 2) i32 @test_ssl_new_from_listener() #1 {
  %1 = alloca ptr, align 8
  %2 = alloca ptr, align 8
  %3 = alloca %struct.in_addr, align 4
  call void @llvm.lifetime.start.p0(i64 8, ptr nonnull %1) #10
  store ptr null, ptr %1, align 8, !tbaa !63
  call void @llvm.lifetime.start.p0(i64 8, ptr nonnull %2) #10
  store ptr null, ptr %2, align 8, !tbaa !63
  call void @llvm.lifetime.start.p0(i64 4, ptr nonnull %3) #10
  store i32 16777247, ptr %3, align 4, !tbaa !65
  %4 = tail call fastcc ptr @create_server_ctx()
  %5 = tail call i32 @test_ptr(ptr noundef nonnull @.str.14, i32 noundef 2584, ptr noundef nonnull @.str.369, ptr noundef %4) #10
  %.not = icmp eq i32 %5, 0
  br i1 %.not, label %83, label %6

6:                                                ; preds = %0
  %7 = tail call fastcc ptr @create_server_ctx()
  %8 = tail call i32 @test_ptr(ptr noundef nonnull @.str.14, i32 noundef 2585, ptr noundef nonnull @.str.370, ptr noundef %7) #10
  %.not26 = icmp eq i32 %8, 0
  br i1 %.not26, label %83, label %9

9:                                                ; preds = %6
  %10 = call i32 @BIO_new_bio_dgram_pair(ptr noundef nonnull %1, i64 noundef 0, ptr noundef nonnull %2, i64 noundef 0) #10
  %11 = icmp ne i32 %10, 0
  %12 = zext i1 %11 to i32
  %13 = call i32 @test_true(ptr noundef nonnull @.str.14, i32 noundef 2586, ptr noundef nonnull @.str.371, i32 noundef %12) #10
  %.not27 = icmp eq i32 %13, 0
  br i1 %.not27, label %83, label %14

14:                                               ; preds = %9
  %15 = call ptr @BIO_ADDR_new() #10
  %16 = call i32 @test_ptr(ptr noundef nonnull @.str.14, i32 noundef 2516, ptr noundef nonnull @.str.384, ptr noundef %15) #10
  %.not.i = icmp eq i32 %16, 0
  br i1 %.not.i, label %create_addr.exit, label %17

17:                                               ; preds = %14
  %18 = call i32 @BIO_ADDR_rawmake(ptr noundef %15, i32 noundef 2, ptr noundef nonnull %3, i64 noundef 4, i16 noundef zeroext 26655) #10
  %19 = icmp ne i32 %18, 0
  %20 = zext i1 %19 to i32
  %21 = call i32 @test_true(ptr noundef nonnull @.str.14, i32 noundef 2520, ptr noundef nonnull @.str.385, i32 noundef %20) #10
  %.not5.i = icmp eq i32 %21, 0
  br i1 %.not5.i, label %22, label %create_addr.exit

22:                                               ; preds = %17
  call void @BIO_ADDR_free(ptr noundef %15) #10
  br label %create_addr.exit

create_addr.exit:                                 ; preds = %14, %17, %22
  %.0.i = phi ptr [ null, %22 ], [ null, %14 ], [ %15, %17 ]
  %23 = call i32 @test_ptr(ptr noundef nonnull @.str.14, i32 noundef 2589, ptr noundef nonnull @.str.372, ptr noundef %.0.i) #10
  %.not28 = icmp eq i32 %23, 0
  br i1 %.not28, label %83, label %24

24:                                               ; preds = %create_addr.exit
  %25 = load ptr, ptr %1, align 8, !tbaa !63
  %26 = call i64 @BIO_ctrl(ptr noundef %25, i32 noundef 87, i64 noundef 3, ptr noundef null) #10
  %27 = and i64 %26, 4294967295
  %28 = icmp ne i64 %27, 0
  %29 = zext i1 %28 to i32
  %30 = call i32 @test_true(ptr noundef nonnull @.str.14, i32 noundef 2532, ptr noundef nonnull @.str.386, i32 noundef %29) #10
  %.not.i38 = icmp eq i32 %30, 0
  br i1 %.not.i38, label %bio_addr_bind.exit, label %31

31:                                               ; preds = %24
  %32 = call i64 @BIO_ctrl(ptr noundef %25, i32 noundef 94, i64 noundef 0, ptr noundef %.0.i) #10
  %33 = trunc i64 %32 to i32
  %34 = call i32 @test_int_eq(ptr noundef nonnull @.str.14, i32 noundef 2535, ptr noundef nonnull @.str.387, ptr noundef nonnull @.str.82, i32 noundef %33, i32 noundef 1) #10
  %.not4.i = icmp ne i32 %34, 0
  %..i = zext i1 %.not4.i to i32
  br label %bio_addr_bind.exit

bio_addr_bind.exit:                               ; preds = %24, %31
  %.0.i39 = phi i32 [ 0, %24 ], [ %..i, %31 ]
  %35 = call i32 @test_true(ptr noundef nonnull @.str.14, i32 noundef 2592, ptr noundef nonnull @.str.373, i32 noundef %.0.i39) #10
  %.not29 = icmp eq i32 %35, 0
  br i1 %.not29, label %83, label %36

36:                                               ; preds = %bio_addr_bind.exit
  %37 = call ptr @BIO_ADDR_new() #10
  %38 = call i32 @test_ptr(ptr noundef nonnull @.str.14, i32 noundef 2516, ptr noundef nonnull @.str.384, ptr noundef %37) #10
  %.not.i40 = icmp eq i32 %38, 0
  br i1 %.not.i40, label %create_addr.exit43, label %39

39:                                               ; preds = %36
  %40 = call i32 @BIO_ADDR_rawmake(ptr noundef %37, i32 noundef 2, ptr noundef nonnull %3, i64 noundef 4, i16 noundef zeroext -4081) #10
  %41 = icmp ne i32 %40, 0
  %42 = zext i1 %41 to i32
  %43 = call i32 @test_true(ptr noundef nonnull @.str.14, i32 noundef 2520, ptr noundef nonnull @.str.385, i32 noundef %42) #10
  %.not5.i41 = icmp eq i32 %43, 0
  br i1 %.not5.i41, label %44, label %create_addr.exit43

44:                                               ; preds = %39
  call void @BIO_ADDR_free(ptr noundef %37) #10
  br label %create_addr.exit43

create_addr.exit43:                               ; preds = %36, %39, %44
  %.0.i42 = phi ptr [ null, %44 ], [ null, %36 ], [ %37, %39 ]
  %45 = call i32 @test_ptr(ptr noundef nonnull @.str.14, i32 noundef 2596, ptr noundef nonnull @.str.374, ptr noundef %.0.i42) #10
  %.not30 = icmp eq i32 %45, 0
  br i1 %.not30, label %83, label %46

46:                                               ; preds = %create_addr.exit43
  %47 = load ptr, ptr %2, align 8, !tbaa !63
  %48 = call i64 @BIO_ctrl(ptr noundef %47, i32 noundef 87, i64 noundef 3, ptr noundef null) #10
  %49 = and i64 %48, 4294967295
  %50 = icmp ne i64 %49, 0
  %51 = zext i1 %50 to i32
  %52 = call i32 @test_true(ptr noundef nonnull @.str.14, i32 noundef 2532, ptr noundef nonnull @.str.386, i32 noundef %51) #10
  %.not.i44 = icmp eq i32 %52, 0
  br i1 %.not.i44, label %bio_addr_bind.exit48, label %53

53:                                               ; preds = %46
  %54 = call i64 @BIO_ctrl(ptr noundef %47, i32 noundef 94, i64 noundef 0, ptr noundef %.0.i42) #10
  %55 = trunc i64 %54 to i32
  %56 = call i32 @test_int_eq(ptr noundef nonnull @.str.14, i32 noundef 2535, ptr noundef nonnull @.str.387, ptr noundef nonnull @.str.82, i32 noundef %55, i32 noundef 1) #10
  %.not4.i45 = icmp ne i32 %56, 0
  %..i46 = zext i1 %.not4.i45 to i32
  br label %bio_addr_bind.exit48

bio_addr_bind.exit48:                             ; preds = %46, %53
  %.0.i47 = phi i32 [ 0, %46 ], [ %..i46, %53 ]
  %57 = call i32 @test_true(ptr noundef nonnull @.str.14, i32 noundef 2599, ptr noundef nonnull @.str.375, i32 noundef %.0.i47) #10
  %.not31 = icmp eq i32 %57, 0
  br i1 %.not31, label %83, label %58

58:                                               ; preds = %bio_addr_bind.exit48
  %59 = load ptr, ptr %1, align 8, !tbaa !63
  %60 = call fastcc ptr @ql_create(ptr noundef %4, ptr noundef %59)
  store ptr null, ptr %1, align 8, !tbaa !63
  %61 = call i32 @test_ptr(ptr noundef nonnull @.str.14, i32 noundef 2605, ptr noundef nonnull @.str.376, ptr noundef %60) #10
  %.not32 = icmp eq i32 %61, 0
  br i1 %.not32, label %83, label %62

62:                                               ; preds = %58
  %63 = load ptr, ptr %2, align 8, !tbaa !63
  %64 = call fastcc ptr @ql_create(ptr noundef %7, ptr noundef %63)
  store ptr null, ptr %2, align 8, !tbaa !63
  %65 = call i32 @test_ptr(ptr noundef nonnull @.str.14, i32 noundef 2610, ptr noundef nonnull @.str.377, ptr noundef %64) #10
  %.not33 = icmp eq i32 %65, 0
  br i1 %.not33, label %83, label %66

66:                                               ; preds = %62
  %67 = call ptr @SSL_new_from_listener(ptr noundef %60, i64 noundef 0) #10
  %68 = call i32 @test_ptr(ptr noundef nonnull @.str.14, i32 noundef 2613, ptr noundef nonnull @.str.378, ptr noundef %67) #10
  %.not34 = icmp eq i32 %68, 0
  br i1 %.not34, label %83, label %69

69:                                               ; preds = %66
  %70 = call fastcc ptr @create_addr(ptr noundef %3, i16 noundef signext 4080)
  %71 = call i32 @test_ptr(ptr noundef nonnull @.str.14, i32 noundef 2616, ptr noundef nonnull @.str.374, ptr noundef %70) #10
  %.not35 = icmp eq i32 %71, 0
  br i1 %.not35, label %83, label %72

72:                                               ; preds = %69
  %73 = call fastcc i32 @qc_init(ptr noundef %67, ptr noundef %70)
  %74 = call i32 @test_true(ptr noundef nonnull @.str.14, i32 noundef 2620, ptr noundef nonnull @.str.379, i32 noundef %73) #10
  %.not36 = icmp eq i32 %74, 0
  br i1 %.not36, label %83, label %.preheader

.preheader:                                       ; preds = %72
  %75 = call i32 @SSL_do_handshake(ptr noundef %67) #10
  %76 = icmp eq i32 %75, -1
  br i1 %76, label %.lr.ph, label %._crit_edge

.lr.ph:                                           ; preds = %.preheader, %.lr.ph
  %77 = call i32 @SSL_handle_events(ptr noundef %64) #10
  %78 = call i32 @SSL_handle_events(ptr noundef %60) #10
  %79 = call i32 @SSL_do_handshake(ptr noundef %67) #10
  %80 = icmp eq i32 %79, -1
  br i1 %80, label %.lr.ph, label %._crit_edge, !llvm.loop !67

._crit_edge:                                      ; preds = %.lr.ph, %.preheader
  %.lcssa = phi i32 [ %75, %.preheader ], [ %79, %.lr.ph ]
  %81 = call i32 @test_int_gt(ptr noundef nonnull @.str.14, i32 noundef 2628, ptr noundef nonnull @.str.379, ptr noundef nonnull @.str.70, i32 noundef %.lcssa, i32 noundef 0) #10
  %.not37 = icmp eq i32 %81, 0
  br i1 %.not37, label %82, label %83

82:                                               ; preds = %._crit_edge
  call void (ptr, i32, ptr, ...) @test_info(ptr noundef nonnull @.str.14, i32 noundef 2629, ptr noundef nonnull @.str.380) #10
  br label %83

83:                                               ; preds = %._crit_edge, %72, %69, %66, %62, %58, %bio_addr_bind.exit48, %create_addr.exit43, %bio_addr_bind.exit, %create_addr.exit, %0, %6, %9, %82
  %.024 = phi ptr [ %7, %82 ], [ %7, %72 ], [ %7, %69 ], [ %7, %66 ], [ %7, %62 ], [ %7, %58 ], [ %7, %bio_addr_bind.exit48 ], [ %7, %create_addr.exit43 ], [ %7, %bio_addr_bind.exit ], [ %7, %create_addr.exit ], [ %7, %9 ], [ %7, %6 ], [ null, %0 ], [ %7, %._crit_edge ]
  %.023 = phi ptr [ %60, %82 ], [ %60, %72 ], [ %60, %69 ], [ %60, %66 ], [ %60, %62 ], [ %60, %58 ], [ null, %bio_addr_bind.exit48 ], [ null, %create_addr.exit43 ], [ null, %bio_addr_bind.exit ], [ null, %create_addr.exit ], [ null, %9 ], [ null, %6 ], [ null, %0 ], [ %60, %._crit_edge ]
  %.022 = phi ptr [ %64, %82 ], [ %64, %72 ], [ %64, %69 ], [ %64, %66 ], [ %64, %62 ], [ null, %58 ], [ null, %bio_addr_bind.exit48 ], [ null, %create_addr.exit43 ], [ null, %bio_addr_bind.exit ], [ null, %create_addr.exit ], [ null, %9 ], [ null, %6 ], [ null, %0 ], [ %64, %._crit_edge ]
  %.021 = phi ptr [ %67, %82 ], [ %67, %72 ], [ %67, %69 ], [ %67, %66 ], [ null, %62 ], [ null, %58 ], [ null, %bio_addr_bind.exit48 ], [ null, %create_addr.exit43 ], [ null, %bio_addr_bind.exit ], [ null, %create_addr.exit ], [ null, %9 ], [ null, %6 ], [ null, %0 ], [ %67, %._crit_edge ]
  %.020 = phi i32 [ 0, %82 ], [ 0, %72 ], [ 0, %69 ], [ 0, %66 ], [ 0, %62 ], [ 0, %58 ], [ 0, %bio_addr_bind.exit48 ], [ 0, %create_addr.exit43 ], [ 0, %bio_addr_bind.exit ], [ 0, %create_addr.exit ], [ 0, %9 ], [ 0, %6 ], [ 0, %0 ], [ 1, %._crit_edge ]
  %.0 = phi ptr [ %70, %82 ], [ %70, %72 ], [ %70, %69 ], [ null, %66 ], [ null, %62 ], [ null, %58 ], [ %.0.i42, %bio_addr_bind.exit48 ], [ %.0.i42, %create_addr.exit43 ], [ %.0.i, %bio_addr_bind.exit ], [ %.0.i, %create_addr.exit ], [ null, %9 ], [ null, %6 ], [ null, %0 ], [ %70, %._crit_edge ]
  call void @SSL_free(ptr noundef %.021) #10
  call void @SSL_free(ptr noundef %.023) #10
  call void @SSL_free(ptr noundef %.022) #10
  %84 = load ptr, ptr %1, align 8, !tbaa !63
  %85 = call i32 @BIO_free(ptr noundef %84) #10
  %86 = load ptr, ptr %2, align 8, !tbaa !63
  %87 = call i32 @BIO_free(ptr noundef %86) #10
  call void @SSL_CTX_free(ptr noundef %.024) #10
  call void @SSL_CTX_free(ptr noundef %4) #10
  call void @BIO_ADDR_free(ptr noundef %.0) #10
  call void @llvm.lifetime.end.p0(i64 4, ptr nonnull %3) #10
  call void @llvm.lifetime.end.p0(i64 8, ptr nonnull %2) #10
  call void @llvm.lifetime.end.p0(i64 8, ptr nonnull %1) #10
  ret i32 %.020
}